; Function Attrs: mustprogress nofree norecurse nosync nounwind sspstrong willreturn memory(none) uwtable
define dso_local i64 @rb_parser_st_hash_uint32(i64 noundef %0, i32 noundef %1) local_unnamed_addr #11 {
  %3 = zext i32 %1 to i64
  %4 = mul i64 %3, -8663945395140668459
  %5 = mul i64 %3, 2487297242801635328
  %6 = lshr i64 %4, 31
  %7 = or disjoint i64 %6, %5
  %8 = xor i64 %7, %0
  %9 = mul i64 %8, 5545529020109919103
  %10 = mul i64 %8, 4838912824426102784
  %11 = lshr i64 %9, 40
  %12 = or disjoint i64 %11, %10
  ret i64 %12
}